; Function Attrs: nofree nounwind uwtable
define hidden i32 @stb_vorbis_get_frame_short_interleaved(ptr noundef %0, i32 noundef %1, ptr noundef %2, i32 noundef %3) local_unnamed_addr #8 {
  %5 = alloca i32, align 4
  %6 = alloca i32, align 4
  %7 = alloca i32, align 4
  %8 = alloca ptr, align 8
  store ptr %2, ptr %8, align 8
  %9 = icmp eq i32 %1, 1
  br i1 %9, label %10, label %12

10:                                               ; preds = %4
  %11 = call i32 @stb_vorbis_get_frame_short(ptr noundef %0, i32 noundef 1, ptr noundef nonnull %8, i32 noundef %3)
  br label %46

12:                                               ; preds = %4
  call void @llvm.lifetime.start.p0(i64 4, ptr nonnull %5) #72
  call void @llvm.lifetime.start.p0(i64 4, ptr nonnull %6) #72
  call void @llvm.lifetime.start.p0(i64 4, ptr nonnull %7) #72
  %13 = getelementptr inbounds nuw i8, ptr %0, i64 92
  %14 = load i8, ptr %13, align 4
  %.not.i = icmp eq i8 %14, 0
  br i1 %.not.i, label %15, label %stb_vorbis_get_frame_float.exit.thread

15:                                               ; preds = %12
  %16 = call fastcc i32 @vorbis_decode_packet(ptr noundef nonnull %0, ptr noundef %5, ptr noundef %7, ptr noundef %6)
  %.not24.i = icmp eq i32 %16, 0
  br i1 %.not24.i, label %17, label %19

17:                                               ; preds = %15
  %18 = getelementptr inbounds nuw i8, ptr %0, i64 1896
  store i32 0, ptr %18, align 8
  br label %stb_vorbis_get_frame_float.exit.thread

19:                                               ; preds = %15
  %20 = load i32, ptr %5, align 4
  %21 = load i32, ptr %7, align 4
  %22 = load i32, ptr %6, align 4
  %23 = tail call fastcc i32 @vorbis_finish_frame(ptr noundef nonnull %0, i32 noundef %20, i32 noundef %21, i32 noundef %22)
  %24 = getelementptr inbounds nuw i8, ptr %0, i64 4
  %25 = load i32, ptr %24, align 4
  %26 = icmp sgt i32 %25, 0
  br i1 %26, label %.lr.ph.i, label %stb_vorbis_get_frame_float.exit

.lr.ph.i:                                         ; preds = %19
  %27 = getelementptr inbounds nuw i8, ptr %0, i64 888
  %28 = sext i32 %21 to i64
  %29 = getelementptr inbounds nuw i8, ptr %0, i64 1016
  %wide.trip.count.i = zext nneg i32 %25 to i64
  br label %30

30:                                               ; preds = %30, %.lr.ph.i
  %indvars.iv.i = phi i64 [ 0, %.lr.ph.i ], [ %indvars.iv.next.i, %30 ]
  %31 = getelementptr inbounds nuw [16 x ptr], ptr %27, i64 0, i64 %indvars.iv.i
  %32 = load ptr, ptr %31, align 8
  %33 = getelementptr inbounds float, ptr %32, i64 %28
  %34 = getelementptr inbounds nuw [16 x ptr], ptr %29, i64 0, i64 %indvars.iv.i
  store ptr %33, ptr %34, align 8
  %indvars.iv.next.i = add nuw nsw i64 %indvars.iv.i, 1
  %exitcond.not.i = icmp eq i64 %indvars.iv.next.i, %wide.trip.count.i
  br i1 %exitcond.not.i, label %stb_vorbis_get_frame_float.exit, label %30

stb_vorbis_get_frame_float.exit.thread:           ; preds = %12, %17
  %.sink25 = phi i64 [ 1892, %17 ], [ 156, %12 ]
  %.sink = phi i32 [ 0, %17 ], [ 2, %12 ]
  %35 = getelementptr inbounds nuw i8, ptr %0, i64 %.sink25
  store i32 %.sink, ptr %35, align 4
  call void @llvm.lifetime.end.p0(i64 4, ptr nonnull %7) #72
  call void @llvm.lifetime.end.p0(i64 4, ptr nonnull %6) #72
  call void @llvm.lifetime.end.p0(i64 4, ptr nonnull %5) #72
  br label %46

stb_vorbis_get_frame_float.exit:                  ; preds = %30, %19
  %36 = getelementptr inbounds nuw i8, ptr %0, i64 1892
  store i32 %21, ptr %36, align 4
  %37 = add nsw i32 %23, %21
  %38 = getelementptr inbounds nuw i8, ptr %0, i64 1896
  store i32 %37, ptr %38, align 8
  %39 = getelementptr inbounds nuw i8, ptr %0, i64 1016
  call void @llvm.lifetime.end.p0(i64 4, ptr nonnull %7) #72
  call void @llvm.lifetime.end.p0(i64 4, ptr nonnull %6) #72
  call void @llvm.lifetime.end.p0(i64 4, ptr nonnull %5) #72
  %.not = icmp eq i32 %23, 0
  br i1 %.not, label %46, label %40

40:                                               ; preds = %stb_vorbis_get_frame_float.exit
  %41 = mul nsw i32 %23, %1
  %42 = icmp sgt i32 %41, %3
  br i1 %42, label %43, label %45

43:                                               ; preds = %40
  %44 = sdiv i32 %3, %1
  br label %45

45:                                               ; preds = %43, %40
  %.1 = phi i32 [ %44, %43 ], [ %23, %40 ]
  tail call fastcc void @convert_channels_short_interleaved(i32 noundef %1, ptr noundef %2, i32 noundef %25, ptr noundef nonnull %39, i32 noundef 0, i32 noundef %.1)
  br label %46

46:                                               ; preds = %stb_vorbis_get_frame_float.exit.thread, %stb_vorbis_get_frame_float.exit, %45, %10
  %.015 = phi i32 [ %11, %10 ], [ %.1, %45 ], [ 0, %stb_vorbis_get_frame_float.exit ], [ 0, %stb_vorbis_get_frame_float.exit.thread ]
  ret i32 %.015
}